; Function Attrs: nounwind uwtable
define internal i32 @filter_frame(ptr noundef readonly captures(none) %0, ptr noundef initializes((124, 132)) %1) #0 {
  %3 = getelementptr inbounds nuw i8, ptr %0, i64 16
  %4 = load ptr, ptr %3, align 8, !tbaa !4
  %5 = getelementptr inbounds nuw i8, ptr %4, i64 72
  %6 = load ptr, ptr %5, align 8, !tbaa !19
  %7 = getelementptr inbounds nuw i8, ptr %1, i64 124
  %8 = getelementptr inbounds nuw i8, ptr %6, i64 16
  %9 = load i64, ptr %8, align 8
  store i64 %9, ptr %7, align 4
  %10 = load ptr, ptr %3, align 8, !tbaa !4
  %11 = getelementptr inbounds nuw i8, ptr %10, i64 56
  %12 = load ptr, ptr %11, align 8, !tbaa !29
  %13 = load ptr, ptr %12, align 8, !tbaa !30
  %14 = tail call i32 @ff_filter_frame(ptr noundef %13, ptr noundef %1) #4
  ret i32 %14
}